target datalayout = "e-m:e-p270:32:32-p271:32:32-p272:64:64-i64:64-i128:128-f80:128-n8:16:32:64-S128"
target triple = "x86_64-pc-linux-gnu"

%struct.cbb_st = type { ptr, ptr, i64, i8, i8, i8 }
%class.ScopedOpenSSLContext = type { %struct.cbb_st }

; Function Attrs: mustprogress nounwind uwtable
define linkonce_odr hidden void @_ZN20ScopedOpenSSLContextI6cbb_stvXadL_Z8CBB_zeroEEXadL_Z11CBB_cleanupEEED2Ev(ptr noundef nonnull align 8 dereferenceable(32) %0) unnamed_addr #5 comdat align 2 personality ptr @__gxx_personality_v0 {
  %2 = alloca ptr, align 8
  store ptr %0, ptr %2, align 8, !tbaa !67
  %3 = load ptr, ptr %2, align 8
  %4 = getelementptr inbounds nuw %class.ScopedOpenSSLContext, ptr %3, i32 0, i32 0
  invoke void @CBB_cleanup(ptr noundef %4)
          to label %5 unwind label %6

5:                                                ; preds = %1
  ret void

6:                                                ; preds = %1
  %7 = landingpad { ptr, i32 }
          catch ptr null
  %8 = extractvalue { ptr, i32 } %7, 0
  call void @__clang_call_terminate(ptr %8) #17
  unreachable
}

; Function Attrs: mustprogress nounwind uwtable
define linkonce_odr hidden noundef ptr @_ZN20ScopedOpenSSLContextI6cbb_stvXadL_Z8CBB_zeroEEXadL_Z11CBB_cleanupEEE3getEv(ptr noundef nonnull align 8 dereferenceable(32) %0) #5 comdat align 2 {
  %2 = alloca ptr, align 8
  store ptr %0, ptr %2, align 8, !tbaa !67
  %3 = load ptr, ptr %2, align 8
  %4 = getelementptr inbounds nuw %class.ScopedOpenSSLContext, ptr %3, i32 0, i32 0
  ret ptr %4
}

; Function Attrs: mustprogress uwtable
define linkonce_odr hidden void @_ZN20ScopedOpenSSLContextI6cbb_stvXadL_Z8CBB_zeroEEXadL_Z11CBB_cleanupEEEC2Ev(ptr noundef nonnull align 8 dereferenceable(32) %0) unnamed_addr #2 comdat align 2 {
  %2 = alloca ptr, align 8
  store ptr %0, ptr %2, align 8, !tbaa !67
  %3 = load ptr, ptr %2, align 8
  %4 = getelementptr inbounds nuw %class.ScopedOpenSSLContext, ptr %3, i32 0, i32 0
  call void @CBB_zero(ptr noundef %4)
  ret void
}

; Function Attrs: mustprogress uwtable
define internal noundef zeroext i1 @_ZL14TestCBBReservev() #2 personality ptr @__gxx_personality_v0 {
  %1 = alloca i1, align 1
  %2 = alloca [10 x i8], align 1
  %3 = alloca ptr, align 8
  %4 = alloca i64, align 8
  %5 = alloca %class.ScopedOpenSSLContext, align 8
  %6 = alloca ptr, align 8
  %7 = alloca i32, align 4
  %8 = alloca i32, align 4
  call void @llvm.lifetime.start.p0(i64 10, ptr %2) #15
  call void @llvm.lifetime.start.p0(i64 8, ptr %3) #15
  call void @llvm.lifetime.start.p0(i64 8, ptr %4) #15
  call void @llvm.lifetime.start.p0(i64 32, ptr %5) #15
  call void @_ZN20ScopedOpenSSLContextI6cbb_stvXadL_Z8CBB_zeroEEXadL_Z11CBB_cleanupEEEC2Ev(ptr noundef nonnull align 8 dereferenceable(32) %5)
  %9 = call noundef ptr @_ZN20ScopedOpenSSLContextI6cbb_stvXadL_Z8CBB_zeroEEXadL_Z11CBB_cleanupEEE3getEv(ptr noundef nonnull align 8 dereferenceable(32) %5)
  %10 = getelementptr inbounds [10 x i8], ptr %2, i64 0, i64 0
  %11 = invoke i32 @CBB_init_fixed(ptr noundef %9, ptr noundef %10, i64 noundef 10)
          to label %12 unwind label %42

12:                                               ; preds = %0
  %13 = icmp ne i32 %11, 0
  br i1 %13, label %14, label %41

14:                                               ; preds = %12
  %15 = call noundef ptr @_ZN20ScopedOpenSSLContextI6cbb_stvXadL_Z8CBB_zeroEEXadL_Z11CBB_cleanupEEE3getEv(ptr noundef nonnull align 8 dereferenceable(32) %5)
  %16 = invoke i32 @CBB_reserve(ptr noundef %15, ptr noundef %3, i64 noundef 11)
          to label %17 unwind label %42

17:                                               ; preds = %14
  %18 = icmp ne i32 %16, 0
  br i1 %18, label %41, label %19

19:                                               ; preds = %17
  %20 = call noundef ptr @_ZN20ScopedOpenSSLContextI6cbb_stvXadL_Z8CBB_zeroEEXadL_Z11CBB_cleanupEEE3getEv(ptr noundef nonnull align 8 dereferenceable(32) %5)
  %21 = invoke i32 @CBB_reserve(ptr noundef %20, ptr noundef %3, i64 noundef 10)
          to label %22 unwind label %42

22:                                               ; preds = %19
  %23 = icmp ne i32 %21, 0
  br i1 %23, label %24, label %41

24:                                               ; preds = %22
  %25 = load ptr, ptr %3, align 8, !tbaa !15
  %26 = getelementptr inbounds [10 x i8], ptr %2, i64 0, i64 0
  %27 = icmp ne ptr %25, %26
  br i1 %27, label %41, label %28

28:                                               ; preds = %24
  %29 = call noundef ptr @_ZN20ScopedOpenSSLContextI6cbb_stvXadL_Z8CBB_zeroEEXadL_Z11CBB_cleanupEEE3getEv(ptr noundef nonnull align 8 dereferenceable(32) %5)
  %30 = invoke i32 @CBB_did_write(ptr noundef %29, i64 noundef 5)
          to label %31 unwind label %42

31:                                               ; preds = %28
  %32 = icmp ne i32 %30, 0
  br i1 %32, label %33, label %41

33:                                               ; preds = %31
  %34 = call noundef ptr @_ZN20ScopedOpenSSLContextI6cbb_stvXadL_Z8CBB_zeroEEXadL_Z11CBB_cleanupEEE3getEv(ptr noundef nonnull align 8 dereferenceable(32) %5)
  %35 = invoke i32 @CBB_finish(ptr noundef %34, ptr noundef null, ptr noundef %4)
          to label %36 unwind label %42

36:                                               ; preds = %33
  %37 = icmp ne i32 %35, 0
  br i1 %37, label %38, label %41

38:                                               ; preds = %36
  %39 = load i64, ptr %4, align 8, !tbaa !13
  %40 = icmp ne i64 %39, 5
  br i1 %40, label %41, label %46

41:                                               ; preds = %38, %36, %31, %24, %22, %17, %12
  store i1 false, ptr %1, align 1
  store i32 1, ptr %8, align 4
  br label %47

42:                                               ; preds = %33, %28, %19, %14, %0
  %43 = landingpad { ptr, i32 }
          cleanup
  %44 = extractvalue { ptr, i32 } %43, 0
  store ptr %44, ptr %6, align 8
  %45 = extractvalue { ptr, i32 } %43, 1
  store i32 %45, ptr %7, align 4
  call void @_ZN20ScopedOpenSSLContextI6cbb_stvXadL_Z8CBB_zeroEEXadL_Z11CBB_cleanupEEED2Ev(ptr noundef nonnull align 8 dereferenceable(32) %5) #15
  call void @llvm.lifetime.end.p0(i64 32, ptr %5) #15
  call void @llvm.lifetime.end.p0(i64 8, ptr %4) #15
  call void @llvm.lifetime.end.p0(i64 8, ptr %3) #15
  call void @llvm.lifetime.end.p0(i64 10, ptr %2) #15
  br label %49

46:                                               ; preds = %38
  store i1 true, ptr %1, align 1
  store i32 1, ptr %8, align 4
  br label %47

47:                                               ; preds = %46, %41
  call void @_ZN20ScopedOpenSSLContextI6cbb_stvXadL_Z8CBB_zeroEEXadL_Z11CBB_cleanupEEED2Ev(ptr noundef nonnull align 8 dereferenceable(32) %5) #15
  call void @llvm.lifetime.end.p0(i64 32, ptr %5) #15
  call void @llvm.lifetime.end.p0(i64 8, ptr %4) #15
  call void @llvm.lifetime.end.p0(i64 8, ptr %3) #15
  call void @llvm.lifetime.end.p0(i64 10, ptr %2) #15
  %48 = load i1, ptr %1, align 1
  ret i1 %48

49:                                               ; preds = %42
  %50 = load ptr, ptr %6, align 8
  %51 = load i32, ptr %7, align 4
  %52 = insertvalue { ptr, i32 } poison, ptr %50, 0
  %53 = insertvalue { ptr, i32 } %52, i32 %51, 1
  resume { ptr, i32 } %53
}