; Function Attrs: mustprogress norecurse uwtable
define internal fastcc noundef zeroext i1 @_ZL14TestCBBReservev() unnamed_addr #0 personality ptr @__gxx_personality_v0 {
  %1 = alloca [10 x i8], align 1
  %2 = alloca ptr, align 8
  %3 = alloca i64, align 8
  %4 = alloca %class.ScopedOpenSSLContext, align 8
  call void @llvm.lifetime.start.p0(i64 10, ptr nonnull %1) #12
  call void @llvm.lifetime.start.p0(i64 8, ptr nonnull %2) #12
  call void @llvm.lifetime.start.p0(i64 8, ptr nonnull %3) #12
  call void @llvm.lifetime.start.p0(i64 32, ptr nonnull %4) #12
  call void @CBB_zero(ptr noundef nonnull align 8 dereferenceable(32) %4)
  %5 = invoke i32 @CBB_init_fixed(ptr noundef nonnull %4, ptr noundef nonnull %1, i64 noundef 10)
          to label %6 unwind label %25

6:                                                ; preds = %0
  %.not = icmp eq i32 %5, 0
  br i1 %.not, label %30, label %7

7:                                                ; preds = %6
  %8 = invoke i32 @CBB_reserve(ptr noundef nonnull %4, ptr noundef nonnull %2, i64 noundef 11)
          to label %9 unwind label %25

9:                                                ; preds = %7
  %.not6 = icmp eq i32 %8, 0
  br i1 %.not6, label %10, label %30

10:                                               ; preds = %9
  %11 = invoke i32 @CBB_reserve(ptr noundef nonnull %4, ptr noundef nonnull %2, i64 noundef 10)
          to label %12 unwind label %25

12:                                               ; preds = %10
  %13 = icmp eq i32 %11, 0
  %14 = load ptr, ptr %2, align 8
  %15 = icmp ne ptr %14, %1
  %or.cond = select i1 %13, i1 true, i1 %15
  br i1 %or.cond, label %30, label %16

16:                                               ; preds = %12
  %17 = invoke i32 @CBB_did_write(ptr noundef nonnull %4, i64 noundef 5)
          to label %18 unwind label %25

18:                                               ; preds = %16
  %.not7 = icmp eq i32 %17, 0
  br i1 %.not7, label %30, label %19

19:                                               ; preds = %18
  %20 = invoke i32 @CBB_finish(ptr noundef nonnull %4, ptr noundef null, ptr noundef nonnull %3)
          to label %21 unwind label %25

21:                                               ; preds = %19
  %22 = icmp ne i32 %20, 0
  %23 = load i64, ptr %3, align 8
  %24 = icmp eq i64 %23, 5
  %or.cond4.not = select i1 %22, i1 %24, i1 false
  br label %30

25:                                               ; preds = %19, %16, %10, %7, %0
  %26 = landingpad { ptr, i32 }
          cleanup
  invoke void @CBB_cleanup(ptr noundef nonnull align 8 dereferenceable(32) %4)
          to label %_ZN20ScopedOpenSSLContextI6cbb_stvXadL_Z8CBB_zeroEEXadL_Z11CBB_cleanupEEED2Ev.exit unwind label %27

27:                                               ; preds = %25
  %28 = landingpad { ptr, i32 }
          catch ptr null
  %29 = extractvalue { ptr, i32 } %28, 0
  call void @__clang_call_terminate(ptr %29) #14
  unreachable

_ZN20ScopedOpenSSLContextI6cbb_stvXadL_Z8CBB_zeroEEXadL_Z11CBB_cleanupEEED2Ev.exit: ; preds = %25
  call void @llvm.lifetime.end.p0(i64 32, ptr nonnull %4) #12
  call void @llvm.lifetime.end.p0(i64 8, ptr nonnull %3) #12
  call void @llvm.lifetime.end.p0(i64 8, ptr nonnull %2) #12
  call void @llvm.lifetime.end.p0(i64 10, ptr nonnull %1) #12
  resume { ptr, i32 } %26

30:                                               ; preds = %21, %6, %9, %12, %18
  %.0 = phi i1 [ false, %18 ], [ false, %12 ], [ false, %9 ], [ false, %6 ], [ %or.cond4.not, %21 ]
  invoke void @CBB_cleanup(ptr noundef nonnull align 8 dereferenceable(32) %4)
          to label %_ZN20ScopedOpenSSLContextI6cbb_stvXadL_Z8CBB_zeroEEXadL_Z11CBB_cleanupEEED2Ev.exit8 unwind label %31

31:                                               ; preds = %30
  %32 = landingpad { ptr, i32 }
          catch ptr null
  %33 = extractvalue { ptr, i32 } %32, 0
  call void @__clang_call_terminate(ptr %33) #14
  unreachable

_ZN20ScopedOpenSSLContextI6cbb_stvXadL_Z8CBB_zeroEEXadL_Z11CBB_cleanupEEED2Ev.exit8: ; preds = %30
  call void @llvm.lifetime.end.p0(i64 32, ptr nonnull %4) #12
  call void @llvm.lifetime.end.p0(i64 8, ptr nonnull %3) #12
  call void @llvm.lifetime.end.p0(i64 8, ptr nonnull %2) #12
  call void @llvm.lifetime.end.p0(i64 10, ptr nonnull %1) #12
  ret i1 %.0
}